; Function Attrs: nounwind uwtable
define void @Cec3_AddClausesSuper(ptr noundef readonly captures(none) %0, ptr noundef %1, ptr noundef readonly captures(none) %2, ptr noundef %3) local_unnamed_addr #2 {
  %5 = getelementptr i8, ptr %2, i64 4
  %.val64 = load i32, ptr %5, align 4, !tbaa !36
  %6 = add nsw i32 %.val64, 1
  %7 = sext i32 %6 to i64
  %8 = shl nsw i64 %7, 2
  %9 = tail call noalias ptr @malloc(i64 noundef %8) #23
  %10 = icmp sgt i32 %.val64, 0
  br i1 %10, label %.lr.ph, label %.critedge.preheader..critedge._crit_edge_crit_edge

.lr.ph:                                           ; preds = %4
  %11 = getelementptr i8, ptr %2, i64 8
  %12 = getelementptr i8, ptr %0, i64 32
  %13 = getelementptr i8, ptr %0, i64 416
  %14 = ptrtoint ptr %1 to i64
  %15 = getelementptr inbounds nuw i8, ptr %9, i64 4
  br label %21

.critedge.preheader:                              ; preds = %21
  %16 = icmp sgt i32 %.val65, 0
  br i1 %16, label %.lr.ph75, label %.critedge.preheader..critedge._crit_edge_crit_edge

.critedge.preheader..critedge._crit_edge_crit_edge: ; preds = %4, %.critedge.preheader
  %.phi.trans.insert = getelementptr i8, ptr %0, i64 32
  %.val.pre = load ptr, ptr %.phi.trans.insert, align 8, !tbaa !11
  %.phi.trans.insert82 = getelementptr i8, ptr %0, i64 416
  %.val57.pre = load ptr, ptr %.phi.trans.insert82, align 8, !tbaa !33
  %.pre = ptrtoint ptr %.val.pre to i64
  br label %.critedge._crit_edge

.lr.ph75:                                         ; preds = %.critedge.preheader
  %17 = getelementptr i8, ptr %2, i64 8
  %.val68 = load ptr, ptr %17, align 8, !tbaa !38
  %18 = getelementptr i8, ptr %0, i64 32
  %.val58 = load ptr, ptr %18, align 8, !tbaa !11
  %19 = getelementptr i8, ptr %0, i64 416
  %.val59 = load ptr, ptr %19, align 8, !tbaa !33
  %20 = ptrtoint ptr %.val58 to i64
  %wide.trip.count = zext nneg i32 %.val65 to i64
  br label %.critedge

21:                                               ; preds = %.lr.ph, %21
  %indvars.iv = phi i64 [ 0, %.lr.ph ], [ %indvars.iv.next, %21 ]
  %.val67 = load ptr, ptr %11, align 8, !tbaa !38
  %22 = getelementptr inbounds nuw ptr, ptr %.val67, i64 %indvars.iv
  %23 = load ptr, ptr %22, align 8, !tbaa !39
  %24 = ptrtoint ptr %23 to i64
  %25 = and i64 %24, -2
  %.val62 = load ptr, ptr %12, align 8, !tbaa !11
  %.val63 = load ptr, ptr %13, align 8, !tbaa !33
  %26 = ptrtoint ptr %.val62 to i64
  %27 = sub i64 %25, %26
  %28 = sdiv exact i64 %27, 12
  %sext.i = shl i64 %28, 32
  %29 = ashr exact i64 %sext.i, 30
  %30 = getelementptr inbounds i8, ptr %.val63, i64 %29
  %31 = load i32, ptr %30, align 4, !tbaa !34
  %32 = trunc i64 %24 to i32
  %33 = and i32 %32, 1
  %34 = shl nsw i32 %31, 1
  %35 = or disjoint i32 %34, %33
  store i32 %35, ptr %9, align 4, !tbaa !34
  %36 = sub i64 %14, %26
  %37 = sdiv exact i64 %36, 12
  %sext.i69 = shl i64 %37, 32
  %38 = ashr exact i64 %sext.i69, 30
  %39 = getelementptr inbounds i8, ptr %.val63, i64 %38
  %40 = load i32, ptr %39, align 4, !tbaa !34
  %41 = shl nsw i32 %40, 1
  %42 = or disjoint i32 %41, 1
  store i32 %42, ptr %15, align 4, !tbaa !34
  %43 = tail call i32 @bmcg_sat_solver_addclause(ptr noundef %3, ptr noundef nonnull %9, i32 noundef 2) #22
  %indvars.iv.next = add nuw nsw i64 %indvars.iv, 1
  %.val65 = load i32, ptr %5, align 4, !tbaa !36
  %44 = sext i32 %.val65 to i64
  %45 = icmp slt i64 %indvars.iv.next, %44
  br i1 %45, label %21, label %.critedge.preheader, !llvm.loop !40

.critedge:                                        ; preds = %.lr.ph75, %.critedge
  %indvars.iv78 = phi i64 [ 0, %.lr.ph75 ], [ %indvars.iv.next79, %.critedge ]
  %46 = getelementptr inbounds nuw ptr, ptr %.val68, i64 %indvars.iv78
  %47 = load ptr, ptr %46, align 8, !tbaa !39
  %48 = ptrtoint ptr %47 to i64
  %49 = and i64 %48, -2
  %50 = sub i64 %49, %20
  %51 = sdiv exact i64 %50, 12
  %sext.i70 = shl i64 %51, 32
  %52 = ashr exact i64 %sext.i70, 30
  %53 = getelementptr inbounds i8, ptr %.val59, i64 %52
  %54 = load i32, ptr %53, align 4, !tbaa !34
  %55 = trunc i64 %48 to i32
  %56 = and i32 %55, 1
  %57 = shl nsw i32 %54, 1
  %58 = or disjoint i32 %57, %56
  %59 = xor i32 %58, 1
  %60 = getelementptr inbounds nuw i32, ptr %9, i64 %indvars.iv78
  store i32 %59, ptr %60, align 4, !tbaa !34
  %indvars.iv.next79 = add nuw nsw i64 %indvars.iv78, 1
  %exitcond.not = icmp eq i64 %indvars.iv.next79, %wide.trip.count
  br i1 %exitcond.not, label %.critedge._crit_edge, label %.critedge, !llvm.loop !42

.critedge._crit_edge:                             ; preds = %.critedge, %.critedge.preheader..critedge._crit_edge_crit_edge
  %.pre-phi = phi i64 [ %.pre, %.critedge.preheader..critedge._crit_edge_crit_edge ], [ %20, %.critedge ]
  %.val57 = phi ptr [ %.val57.pre, %.critedge.preheader..critedge._crit_edge_crit_edge ], [ %.val59, %.critedge ]
  %61 = ptrtoint ptr %1 to i64
  %62 = sub i64 %61, %.pre-phi
  %63 = sdiv exact i64 %62, 12
  %sext.i71 = shl i64 %63, 32
  %64 = ashr exact i64 %sext.i71, 30
  %65 = getelementptr inbounds i8, ptr %.val57, i64 %64
  %66 = load i32, ptr %65, align 4, !tbaa !34
  %67 = shl nsw i32 %66, 1
  %68 = sext i32 %.val64 to i64
  %69 = getelementptr inbounds i32, ptr %9, i64 %68
  store i32 %67, ptr %69, align 4, !tbaa !34
  %70 = tail call i32 @bmcg_sat_solver_addclause(ptr noundef %3, ptr noundef %9, i32 noundef %6) #22
  tail call void @free(ptr noundef %9) #22
  ret void
}